target datalayout = "e-m:e-p270:32:32-p271:32:32-p272:64:64-i64:64-i128:128-f80:128-n8:16:32:64-S128"
target triple = "x86_64-pc-linux-gnu"

%"class.llvm::MCSubtargetInfo" = type { ptr, %"class.llvm::Triple", %"class.std::__cxx11::basic_string", %"class.std::__cxx11::basic_string", %"class.llvm::ArrayRef", %"class.llvm::ArrayRef.0", ptr, ptr, ptr, ptr, ptr, ptr, ptr, %"class.llvm::FeatureBitset", %"class.std::__cxx11::basic_string" }
%"class.llvm::Triple" = type { %"class.std::__cxx11::basic_string", i32, i32, i32, i32, i32, i32 }
%"class.llvm::ArrayRef" = type { ptr, i64 }
%"class.llvm::ArrayRef.0" = type { ptr, i64 }
%"class.llvm::FeatureBitset" = type { %"struct.std::array" }
%"struct.std::array" = type { [5 x i64] }
%"class.std::__cxx11::basic_string" = type { %"struct.std::__cxx11::basic_string<char>::_Alloc_hider", i64, %union.anon }
%"struct.std::__cxx11::basic_string<char>::_Alloc_hider" = type { ptr }
%union.anon = type { i64, [8 x i8] }
%"class.llvm::MCFragment.base" = type <{ ptr, ptr, i64, i32, i8, i8 }>
%"struct.llvm::Align" = type { i8 }
%"class.llvm::MCAlignFragment" = type { %"class.llvm::MCFragment.base", %"struct.llvm::Align", i8, i64, i32, i32, ptr }

; Function Attrs: mustprogress nounwind uwtable
define linkonce_odr hidden noundef nonnull align 8 dereferenceable(8) ptr @_ZNSt14__array_traitsImLm5EE6_S_refERA5_Kmm(ptr noundef nonnull align 8 dereferenceable(40) %0, i64 noundef %1) #1 comdat align 2 {
  %3 = alloca ptr, align 8
  %4 = alloca i64, align 8
  store ptr %0, ptr %3, align 8
  store i64 %1, ptr %4, align 8
  %5 = load ptr, ptr %3, align 8
  %6 = load i64, ptr %4, align 8
  %7 = getelementptr inbounds [5 x i64], ptr %5, i64 0, i64 %6
  ret ptr %7
}

; Function Attrs: mustprogress nounwind uwtable
define linkonce_odr hidden noundef nonnull align 8 dereferenceable(8) ptr @_ZNKSt5arrayImLm5EEixEm(ptr noundef nonnull align 8 dereferenceable(40) %0, i64 noundef %1) #1 comdat align 2 {
  %3 = alloca ptr, align 8
  %4 = alloca i64, align 8
  store ptr %0, ptr %3, align 8
  store i64 %1, ptr %4, align 8
  %5 = load ptr, ptr %3, align 8
  %6 = getelementptr inbounds nuw %"struct.std::array", ptr %5, i32 0, i32 0
  %7 = load i64, ptr %4, align 8
  %8 = call noundef nonnull align 8 dereferenceable(8) ptr @_ZNSt14__array_traitsImLm5EE6_S_refERA5_Kmm(ptr noundef nonnull align 8 dereferenceable(40) %6, i64 noundef %7) #2
  ret ptr %8
}

; Function Attrs: mustprogress nounwind uwtable
define linkonce_odr hidden noundef zeroext i1 @_ZNK4llvm13FeatureBitsetixEj(ptr noundef nonnull align 8 dereferenceable(40) %0, i32 noundef %1) #1 comdat align 2 {
  %3 = alloca ptr, align 8
  %4 = alloca i32, align 4
  %5 = alloca i64, align 8
  store ptr %0, ptr %3, align 8
  store i32 %1, ptr %4, align 4
  %6 = load ptr, ptr %3, align 8
  %7 = load i32, ptr %4, align 4
  %8 = urem i32 %7, 64
  %9 = zext i32 %8 to i64
  %10 = shl i64 1, %9
  store i64 %10, ptr %5, align 8
  %11 = getelementptr inbounds nuw %"class.llvm::FeatureBitset", ptr %6, i32 0, i32 0
  %12 = load i32, ptr %4, align 4
  %13 = udiv i32 %12, 64
  %14 = zext i32 %13 to i64
  %15 = call noundef nonnull align 8 dereferenceable(8) ptr @_ZNKSt5arrayImLm5EEixEm(ptr noundef nonnull align 8 dereferenceable(40) %11, i64 noundef %14) #2
  %16 = load i64, ptr %15, align 8
  %17 = load i64, ptr %5, align 8
  %18 = and i64 %16, %17
  %19 = icmp ne i64 %18, 0
  ret i1 %19
}

; Function Attrs: mustprogress nounwind uwtable
define linkonce_odr hidden noundef i64 @_ZNK4llvm5Align5valueEv(ptr noundef nonnull align 1 dereferenceable(1) %0) #1 comdat align 2 {
  %2 = alloca ptr, align 8
  store ptr %0, ptr %2, align 8
  %3 = load ptr, ptr %2, align 8
  %4 = getelementptr inbounds nuw %"struct.llvm::Align", ptr %3, i32 0, i32 0
  %5 = load i8, ptr %4, align 1
  %6 = zext i8 %5 to i32
  %7 = zext i32 %6 to i64
  %8 = shl i64 1, %7
  ret i64 %8
}

; Function Attrs: mustprogress nounwind uwtable
define linkonce_odr hidden noundef zeroext i1 @_ZN4llvmleENS_5AlignEm(i8 %0, i64 noundef %1) #1 comdat {
  %3 = alloca %"struct.llvm::Align", align 1
  %4 = alloca i64, align 8
  %5 = getelementptr inbounds nuw %"struct.llvm::Align", ptr %3, i32 0, i32 0
  store i8 %0, ptr %5, align 1
  store i64 %1, ptr %4, align 8
  %6 = call noundef i64 @_ZNK4llvm5Align5valueEv(ptr noundef nonnull align 1 dereferenceable(1) %3)
  %7 = load i64, ptr %4, align 8
  %8 = icmp ule i64 %6, %7
  ret i1 %8
}

; Function Attrs: mustprogress nounwind uwtable
define linkonce_odr hidden i8 @_ZNK4llvm15MCAlignFragment12getAlignmentEv(ptr noundef nonnull align 8 dereferenceable(56) %0) #1 comdat align 2 {
  %2 = alloca %"struct.llvm::Align", align 1
  %3 = alloca ptr, align 8
  store ptr %0, ptr %3, align 8
  %4 = load ptr, ptr %3, align 8
  %5 = getelementptr inbounds nuw %"class.llvm::MCAlignFragment", ptr %4, i32 0, i32 1
  call void @llvm.memcpy.p0.p0.i64(ptr align 1 %2, ptr align 2 %5, i64 1, i1 false)
  %6 = getelementptr inbounds nuw %"struct.llvm::Align", ptr %2, i32 0, i32 0
  %7 = load i8, ptr %6, align 1
  ret i8 %7
}

; Function Attrs: mustprogress nounwind uwtable
define linkonce_odr hidden noundef zeroext i1 @_ZNK4llvm15MCSubtargetInfo10hasFeatureEj(ptr noundef nonnull align 8 dereferenceable(288) %0, i32 noundef %1) #1 comdat align 2 {
  %3 = alloca ptr, align 8
  %4 = alloca i32, align 4
  store ptr %0, ptr %3, align 8
  store i32 %1, ptr %4, align 4
  %5 = load ptr, ptr %3, align 8
  %6 = getelementptr inbounds nuw %"class.llvm::MCSubtargetInfo", ptr %5, i32 0, i32 13
  %7 = load i32, ptr %4, align 4
  %8 = call noundef zeroext i1 @_ZNK4llvm13FeatureBitsetixEj(ptr noundef nonnull align 8 dereferenceable(40) %6, i32 noundef %7)
  ret i1 %8
}

; Function Attrs: mustprogress nounwind uwtable
define linkonce_odr hidden noundef ptr @_ZNK4llvm15MCAlignFragment16getSubtargetInfoEv(ptr noundef nonnull align 8 dereferenceable(56) %0) #1 comdat align 2 {
  %2 = alloca ptr, align 8
  store ptr %0, ptr %2, align 8
  %3 = load ptr, ptr %2, align 8
  %4 = getelementptr inbounds nuw %"class.llvm::MCAlignFragment", ptr %3, i32 0, i32 6
  %5 = load ptr, ptr %4, align 8
  ret ptr %5
}

; Function Attrs: mustprogress nounwind uwtable
define dso_local noundef zeroext i1 @_ZN4llvm15RISCVAsmBackend37shouldInsertExtraNopBytesForCodeAlignERKNS_15MCAlignFragmentERj(ptr noundef nonnull align 8 dereferenceable(40) %0, ptr noundef nonnull align 8 dereferenceable(56) %1, ptr noundef nonnull align 4 dereferenceable(4) %2) unnamed_addr #1 align 2 {
  %4 = alloca i1, align 1
  %5 = alloca ptr, align 8
  %6 = alloca ptr, align 8
  %7 = alloca ptr, align 8
  %8 = alloca ptr, align 8
  %9 = alloca i8, align 1
  %10 = alloca i32, align 4
  %11 = alloca %"struct.llvm::Align", align 1
  %12 = alloca %"struct.llvm::Align", align 1
  store ptr %0, ptr %5, align 8
  store ptr %1, ptr %6, align 8
  store ptr %2, ptr %7, align 8
  %13 = load ptr, ptr %6, align 8
  %14 = call noundef ptr @_ZNK4llvm15MCAlignFragment16getSubtargetInfoEv(ptr noundef nonnull align 8 dereferenceable(56) %13)
  store ptr %14, ptr %8, align 8
  %15 = load ptr, ptr %8, align 8
  %16 = call noundef zeroext i1 @_ZNK4llvm15MCSubtargetInfo10hasFeatureEj(ptr noundef nonnull align 8 dereferenceable(288) %15, i32 noundef 9)
  br i1 %16, label %18, label %17

17:                                               ; preds = %3
  store i1 false, ptr %4, align 1
  br label %49

18:                                               ; preds = %3
  %19 = load ptr, ptr %8, align 8
  %20 = call noundef zeroext i1 @_ZNK4llvm15MCSubtargetInfo10hasFeatureEj(ptr noundef nonnull align 8 dereferenceable(288) %19, i32 noundef 44)
  br i1 %20, label %24, label %21

21:                                               ; preds = %18
  %22 = load ptr, ptr %8, align 8
  %23 = call noundef zeroext i1 @_ZNK4llvm15MCSubtargetInfo10hasFeatureEj(ptr noundef nonnull align 8 dereferenceable(288) %22, i32 noundef 105)
  br label %24

24:                                               ; preds = %21, %18
  %25 = phi i1 [ true, %18 ], [ %23, %21 ]
  %26 = zext i1 %25 to i8
  store i8 %26, ptr %9, align 1
  %27 = load i8, ptr %9, align 1
  %28 = trunc i8 %27 to i1
  %29 = select i1 %28, i32 2, i32 4
  store i32 %29, ptr %10, align 4
  %30 = load ptr, ptr %6, align 8
  %31 = call i8 @_ZNK4llvm15MCAlignFragment12getAlignmentEv(ptr noundef nonnull align 8 dereferenceable(56) %30)
  %32 = getelementptr inbounds nuw %"struct.llvm::Align", ptr %11, i32 0, i32 0
  store i8 %31, ptr %32, align 1
  %33 = load i32, ptr %10, align 4
  %34 = zext i32 %33 to i64
  %35 = getelementptr inbounds nuw %"struct.llvm::Align", ptr %11, i32 0, i32 0
  %36 = load i8, ptr %35, align 1
  %37 = call noundef zeroext i1 @_ZN4llvmleENS_5AlignEm(i8 %36, i64 noundef %34)
  br i1 %37, label %38, label %39

38:                                               ; preds = %24
  store i1 false, ptr %4, align 1
  br label %49

39:                                               ; preds = %24
  %40 = load ptr, ptr %6, align 8
  %41 = call i8 @_ZNK4llvm15MCAlignFragment12getAlignmentEv(ptr noundef nonnull align 8 dereferenceable(56) %40)
  %42 = getelementptr inbounds nuw %"struct.llvm::Align", ptr %12, i32 0, i32 0
  store i8 %41, ptr %42, align 1
  %43 = call noundef i64 @_ZNK4llvm5Align5valueEv(ptr noundef nonnull align 1 dereferenceable(1) %12)
  %44 = load i32, ptr %10, align 4
  %45 = zext i32 %44 to i64
  %46 = sub i64 %43, %45
  %47 = trunc i64 %46 to i32
  %48 = load ptr, ptr %7, align 8
  store i32 %47, ptr %48, align 4
  store i1 true, ptr %4, align 1
  br label %49

49:                                               ; preds = %39, %38, %17
  %50 = load i1, ptr %4, align 1
  ret i1 %50
}