; Function Attrs: mustprogress nofree norecurse nosync nounwind willreturn memory(read, argmem: readwrite, inaccessiblemem: none) uwtable
define dso_local noundef zeroext i1 @_ZN4llvm15RISCVAsmBackend37shouldInsertExtraNopBytesForCodeAlignERKNS_15MCAlignFragmentERj(ptr nocapture nonnull readnone align 8 %0, ptr nocapture noundef nonnull readonly align 8 dereferenceable(56) %1, ptr nocapture noundef nonnull writeonly align 4 dereferenceable(4) %2) unnamed_addr #9 align 2 {
  %4 = getelementptr inbounds nuw i8, ptr %1, i64 48
  %5 = load ptr, ptr %4, align 8
  %6 = getelementptr inbounds nuw i8, ptr %5, i64 216
  %7 = load i64, ptr %6, align 8
  %8 = and i64 %7, 512
  %.not = icmp eq i64 %8, 0
  br i1 %.not, label %24, label %9

9:                                                ; preds = %3
  %10 = and i64 %7, 17592186044416
  %.not11 = icmp eq i64 %10, 0
  br i1 %.not11, label %11, label %16

11:                                               ; preds = %9
  %12 = getelementptr inbounds i8, ptr %5, i64 224
  %13 = load i64, ptr %12, align 8
  %14 = and i64 %13, 2199023255552
  %.not12 = icmp eq i64 %14, 0
  %15 = select i1 %.not12, i64 4, i64 2
  br label %16

16:                                               ; preds = %11, %9
  %17 = phi i64 [ 2, %9 ], [ %15, %11 ]
  %18 = getelementptr inbounds nuw i8, ptr %1, i64 30
  %.sroa.0.0.copyload.i = load i8, ptr %18, align 2
  %19 = zext nneg i8 %.sroa.0.0.copyload.i to i64
  %.highbits.i = lshr i64 %17, %19
  %.not13 = icmp eq i64 %.highbits.i, 0
  br i1 %.not13, label %20, label %24

20:                                               ; preds = %16
  %21 = shl nuw i64 1, %19
  %22 = sub i64 %21, %17
  %23 = trunc i64 %22 to i32
  store i32 %23, ptr %2, align 4
  br label %24

24:                                               ; preds = %16, %3, %20
  %.0 = phi i1 [ true, %20 ], [ false, %3 ], [ false, %16 ]
  ret i1 %.0
}